Certificate:
    Data:
        Version: 3 (0x2)
        Serial Number: 1 (0x1)
    Signature Algorithm: sha1WithRSAEncryption
        Issuer: C=US, ST=Unset, L=Unset, O=Unset, CN=www.example.com
        Validity
            Not Before: May 30 02:11:00 2014 GMT
            Not After : May 27 02:11:00 2024 GMT
        Subject: C=US, ST=Unset, O=Unset, CN=www.example.com
        Subject Public Key Info:
            Public Key Algorithm: rsaEncryption
                Public-Key: (2048 bit)
                Modulus:
                    00:c5:76:66:78:c1:b7:cf:d2:84:34:71:4e:78:49:
                    c6:1a:61:09:5e:8f:47:3e:03:51:6a:2c:e2:cf:21:
                    f8:14:82:19:f8:6c:57:dc:09:a1:0f:5a:2b:4d:2a:
                    92:97:0f:65:a7:05:46:e7:f7:a5:cd:c8:96:f6:a2:
                    34:61:4d:22:55:ad:d4:de:e5:ea:92:73:8e:77:41:
                    79:92:09:e9:ed:db:7b:da:e5:b5:72:e1:7a:fe:29:
                    67:b2:41:22:52:c2:ff:96:51:09:8e:50:54:dc:62:
                    39:f5:ea:e3:7e:dc:d5:60:a5:d6:8e:04:86:54:ad:
                    8c:ba:ee:9a:43:bc:9d:e4:d0:24:a9:b9:a5:d6:69:
                    37:4c:80:13:18:a6:28:12:64:e8:a8:d1:9e:0e:43:
                    75:4d:97:21:0a:7e:94:0d:da:ad:f4:f7:dc:8d:9f:
                    5e:e8:21:d4:02:3f:67:b1:8a:9d:90:2a:f5:1e:73:
                    8c:27:96:19:f3:9b:1c:14:85:fb:4c:12:ea:a0:b0:
                    2b:ae:72:62:6f:f7:9c:17:b1:63:68:e5:3d:20:a5:
                    28:22:1c:f9:66:51:c4:e2:ef:80:cd:f2:66:26:23:
                    be:b9:9e:f6:06:e5:14:2b:dc:3f:a0:2e:3a:b3:98:
                    50:f4:ed:df:8f:1d:aa:3f:b0:19:b1:d5:b1:a2:17:
                    9d:71
                Exponent: 65537 (0x10001)
        X509v3 extensions:
            X509v3 Basic Constraints: 
                CA:FALSE
            X509v3 Subject Key Identifier: 
                EC:3B:25:C3:1E:3C:BD:DE:DC:22:2A:DA:37:12:E2:4D:82:1A:9B:7A
            X509v3 Authority Key Identifier: 
                keyid:5A:A7:35:E9:8A:96:02:F5:51:A1:EA:CD:E8:7D:90:9B:43:46:55:AD

    Signature Algorithm: sha1WithRSAEncryption
         4a:c1:e0:ff:3f:fe:58:5b:3e:7a:6c:d2:9e:f1:8e:ed:38:5c:
         08:4c:14:5b:63:f6:fa:80:1d:9c:c6:9a:8c:3d:e6:aa:63:75:
         04:4e:71:87:01:7c:b9:e1:0e:fa:d9:da:9c:bc:9c:ed:8f:03:
         f9:0b:c2:ee:00:c7:78:7f:e9:cd:a5:c7:46:27:10:54:6f:91:
         2e:ef:e5:6b:44:4f:39:bb:8d:5b:6e:06:c8:85:c3:66:67:c8:
         12:89:9e:c1:15:67:4e:45:d2:00:f5:86:45:29:a3:c9:cf:8b:
         11:d8:4d:4a:03:f9:56:3e:ae:0e:b3:fe:65:70:68:c5:82:ec:
         77:21:d7:df:8d:f4:6b:8f:05:1d:5c:50:16:24:5c:f1:58:ba:
         f4:9a:d4:8e:36:96:da:7e:38:2e:76:d5:23:1f:f9:88:e7:dc:
         4f:4b:b9:e9:b6:0a:ce:e2:f3:31:d2:17:6d:10:e0:51:31:38:
         40:8d:18:c6:43:7a:ef:d9:e8:ff:1a:a7:d6:62:df:4e:64:e5:
         4f:3f:c7:31:8a:b3:f0:fc:93:f7:a0:91:5d:50:a6:96:0d:d5:
         19:0d:88:bc:33:f8:ee:dd:c0:fd:69:51:19:5b:d9:2e:8d:fb:
         4f:15:38:e3:88:fd:d0:af:10:dc:3f:36:9f:48:ce:dd:82:8d:
         08:85:db:08
-----BEGIN CERTIFICATE-----
MIIDZjCCAk6gAwIBAgIBATANBgkqhkiG9w0BAQUFADBXMQswCQYDVQQGEwJVUzEO
MAwGA1UECAwFVW5zZXQxDjAMBgNVBAcMBVVuc2V0MQ4wDAYDVQQKDAVVbnNldDEY
MBYGA1UEAwwPd3d3LmV4YW1wbGUuY29tMB4XDTE0MDUzMDAyMTEwMFoXDTI0MDUy
NzAyMTEwMFowRzELMAkGA1UEBhMCVVMxDjAMBgNVBAgMBVVuc2V0MQ4wDAYDVQQK
DAVVbnNldDEYMBYGA1UEAwwPd3d3LmV4YW1wbGUuY29tMIIBIjANBgkqhkiG9w0B
AQEFAAOCAQ8AMIIBCgKCAQEAxXZmeMG3z9KENHFOeEnGGmEJXo9HPgNRaizizyH4
FIIZ+GxX3AmhD1orTSqSlw9lpwVG5/elzciW9qI0YU0iVa3U3uXqknOOd0F5kgnp
7dt72uW1cuF6/ilnskEiUsL/llEJjlBU3GI59erjftzVYKXWjgSGVK2Muu6aQ7yd
5NAkqbml1mk3TIATGKYoEmToqNGeDkN1TZchCn6UDdqt9PfcjZ9e6CHUAj9nsYqd
kCr1HnOMJ5YZ85scFIX7TBLqoLArrnJib/ecF7FjaOU9IKUoIhz5ZlHE4u+AzfJm
JiO+uZ72BuUUK9w/oC46s5hQ9O3fjx2qP7AZsdWxohedcQIDAQABo00wSzAJBgNV
HRMEAjAAMB0GA1UdDgQWBBTsOyXDHjy93twiKto3EuJNghqbejAfBgNVHSMEGDAW
gBRapzXpipYC9VGh6s3ofZCbQ0ZVrTANBgkqhkiG9w0BAQUFAAOCAQEASsHg/z/+
WFs+emzSnvGO7ThcCEwUW2P2+oAdnMaajD3mqmN1BE5xhwF8ueEO+tnanLyc7Y8D
+QvC7gDHeH/pzaXHRicQVG+RLu/la0RPObuNW24GyIXDZmfIEomewRVnTkXSAPWG
RSmjyc+LEdhNSgP5Vj6uDrP+ZXBoxYLsdyHX3430a48FHVxQFiRc8Vi69JrUjjaW
2n44LnbVIx/5iOfcT0u56bYKzuLzMdIXbRDgUTE4QI0YxkN679no/xqn1mLfTmTl
Tz/HMYqz8PyT96CRXVCmlg3VGQ2IvDP47t3A/WlRGVvZLo37TxU444j90K8Q3D82
n0jO3YKNCIXbCA==
-----END CERTIFICATE-----
